target datalayout = "e-m:e-p270:32:32-p271:32:32-p272:64:64-i64:64-i128:128-f80:128-n8:16:32:64-S128"
target triple = "x86_64-pc-linux-gnu"

%struct._zend_executor_globals = type { %struct._zval_struct, %struct._zval_struct, [32 x ptr], ptr, ptr, %struct._zend_array, %struct._zend_array, ptr, i32, i8, %struct._zval_struct, i32, ptr, ptr, ptr, ptr, ptr, ptr, i64, ptr, ptr, i32, ptr, i32, i64, i32, i32, i32, i8, i8, %struct.zend_atomic_bool_s, %struct.zend_atomic_bool_s, ptr, i64, ptr, ptr, %struct._zend_array, %struct._zend_array, i32, i8, %struct._zval_struct, %struct._zval_struct, %struct._zend_stack, %struct._zend_stack, %struct._zend_stack, ptr, i32, i32, i64, ptr, ptr, ptr, %struct._zend_objects_store, %struct._zend_lazy_objects_store, ptr, ptr, ptr, [3 x %struct._zend_op], ptr, i8, i8, i64, i32, i32, ptr, [16 x %struct._HashTableIterator], ptr, %union._zend_function, %struct._zend_op, %struct._zend_array, i64, %struct.zend_get_gc_buffer, ptr, ptr, ptr, i64, i8, i32, ptr, ptr, i64, %struct._zend_call_stack, i64, i64, %struct._zend_strtod_state, [6 x ptr] }
%struct.zend_atomic_bool_s = type { i8 }
%struct._zval_struct = type { %union._zend_value, %union.anon, %union.anon.2 }
%union._zend_value = type { i64 }
%union.anon = type { i32 }
%union.anon.2 = type { i32 }
%struct._zend_stack = type { i32, i32, i32, ptr }
%struct._zend_objects_store = type { ptr, i32, i32, i32 }
%struct._zend_lazy_objects_store = type { %struct._zend_array }
%struct._HashTableIterator = type { ptr, i32, i32 }
%union._zend_function = type { %struct._zend_op_array }
%struct._zend_op_array = type { i8, [3 x i8], i32, ptr, ptr, ptr, i32, i32, ptr, ptr, ptr, ptr, i32, ptr, i32, i32, i32, ptr, ptr, ptr, ptr, ptr, i32, i32, ptr, ptr, ptr, i32, i32, i32, i32, ptr, ptr, [6 x ptr] }
%struct._zend_op = type { ptr, %union._znode_op, %union._znode_op, %union._znode_op, i32, i32, i8, i8, i8, i8 }
%union._znode_op = type { i32 }
%struct._zend_array = type { %struct._zend_refcounted_h, %union.anon.4, i32, %union.anon.6, i32, i32, i32, i32, i64, ptr }
%struct._zend_refcounted_h = type { i32, %union.anon.3 }
%union.anon.3 = type { i32 }
%union.anon.4 = type { i32 }
%union.anon.6 = type { ptr }
%struct.zend_get_gc_buffer = type { ptr, ptr, ptr }
%struct._zend_call_stack = type { ptr, i64 }
%struct._zend_strtod_state = type { [8 x ptr], ptr, ptr }
%struct._zend_execute_data = type { ptr, ptr, ptr, ptr, %struct._zval_struct, ptr, ptr, ptr, ptr }
%struct._zend_object = type { %struct._zend_refcounted_h, i32, i32, ptr, ptr, ptr, [1 x %struct._zval_struct] }
%struct._php_sqlite3_stmt_object = type { ptr, ptr, i8, ptr, %struct._zend_object }
%struct._php_sqlite3_result_object = type { ptr, ptr, i8, i32, ptr, %struct._zend_object }

@executor_globals = external global %struct._zend_executor_globals, align 8
@.str.42 = private unnamed_addr constant [81 x i8] c"The SQLite3Result object has not been correctly initialised or is already closed\00", align 1

; Function Attrs: inlinehint nounwind uwtable
define internal ptr @php_sqlite3_result_from_obj(ptr noundef %0) #2 {
  %2 = alloca ptr, align 8
  store ptr %0, ptr %2, align 8, !tbaa !67
  %3 = load ptr, ptr %2, align 8, !tbaa !67
  %4 = getelementptr inbounds i8, ptr %3, i64 -32
  ret ptr %4
}

; Function Attrs: nounwind uwtable
define hidden void @zim_SQLite3Result_numColumns(ptr noundef %0, ptr noundef %1) #0 {
  %3 = alloca ptr, align 8
  %4 = alloca ptr, align 8
  %5 = alloca ptr, align 8
  %6 = alloca ptr, align 8
  %7 = alloca i32, align 4
  %8 = alloca ptr, align 8
  store ptr %0, ptr %3, align 8, !tbaa !4
  store ptr %1, ptr %4, align 8, !tbaa !9
  call void @llvm.lifetime.start.p0(i64 8, ptr %5) #15
  call void @llvm.lifetime.start.p0(i64 8, ptr %6) #15
  %9 = load ptr, ptr %3, align 8, !tbaa !4
  %10 = getelementptr inbounds nuw %struct._zend_execute_data, ptr %9, i32 0, i32 4
  store ptr %10, ptr %6, align 8, !tbaa !9
  %11 = load ptr, ptr %6, align 8, !tbaa !9
  %12 = getelementptr inbounds nuw %struct._zval_struct, ptr %11, i32 0, i32 0
  %13 = load ptr, ptr %12, align 8, !tbaa !13
  %14 = call ptr @php_sqlite3_result_from_obj(ptr noundef %13)
  store ptr %14, ptr %5, align 8, !tbaa !94
  br label %15

15:                                               ; preds = %2
  %16 = load ptr, ptr %3, align 8, !tbaa !4
  %17 = getelementptr inbounds nuw %struct._zend_execute_data, ptr %16, i32 0, i32 4
  %18 = getelementptr inbounds nuw %struct._zval_struct, ptr %17, i32 0, i32 2
  %19 = load i32, ptr %18, align 4, !tbaa !13
  %20 = icmp ne i32 %19, 0
  %21 = xor i1 %20, true
  %22 = xor i1 %21, true
  %23 = zext i1 %22 to i32
  %24 = sext i32 %23 to i64
  %25 = call i64 @llvm.expect.i64(i64 %24, i64 0)
  %26 = icmp ne i64 %25, 0
  br i1 %26, label %27, label %28

27:                                               ; preds = %15
  call void @zend_wrong_parameters_none_error()
  store i32 1, ptr %7, align 4
  br label %67

28:                                               ; preds = %15
  br label %29

29:                                               ; preds = %28
  br label %30

30:                                               ; preds = %29
  %31 = load ptr, ptr %5, align 8, !tbaa !94
  %32 = getelementptr inbounds nuw %struct._php_sqlite3_result_object, ptr %31, i32 0, i32 0
  %33 = load ptr, ptr %32, align 8, !tbaa !96
  %34 = icmp ne ptr %33, null
  br i1 %34, label %35, label %42

35:                                               ; preds = %30
  %36 = load ptr, ptr %5, align 8, !tbaa !94
  %37 = getelementptr inbounds nuw %struct._php_sqlite3_result_object, ptr %36, i32 0, i32 1
  %38 = load ptr, ptr %37, align 8, !tbaa !99
  %39 = getelementptr inbounds nuw %struct._php_sqlite3_stmt_object, ptr %38, i32 0, i32 2
  %40 = load i8, ptr %39, align 8, !tbaa !88, !range !59, !noundef !60
  %41 = trunc i8 %40 to i1
  br i1 %41, label %48, label %42

42:                                               ; preds = %35, %30
  call void (ptr, ptr, ...) @zend_throw_error(ptr noundef null, ptr noundef @.str.42)
  br label %43

43:                                               ; preds = %42
  %44 = load ptr, ptr getelementptr inbounds nuw (%struct._zend_executor_globals, ptr @executor_globals, i32 0, i32 54), align 8, !tbaa !16
  %45 = icmp ne ptr %44, null
  call void @llvm.assume(i1 %45)
  store i32 1, ptr %7, align 4
  br label %67

46:                                               ; No predecessors!
  br label %47

47:                                               ; preds = %46
  br label %48

48:                                               ; preds = %47, %35
  br label %49

49:                                               ; preds = %48
  br label %50

50:                                               ; preds = %49
  call void @llvm.lifetime.start.p0(i64 8, ptr %8) #15
  %51 = load ptr, ptr %4, align 8, !tbaa !9
  store ptr %51, ptr %8, align 8, !tbaa !9
  %52 = load ptr, ptr %5, align 8, !tbaa !94
  %53 = getelementptr inbounds nuw %struct._php_sqlite3_result_object, ptr %52, i32 0, i32 1
  %54 = load ptr, ptr %53, align 8, !tbaa !99
  %55 = getelementptr inbounds nuw %struct._php_sqlite3_stmt_object, ptr %54, i32 0, i32 0
  %56 = load ptr, ptr %55, align 8, !tbaa !102
  %57 = call i32 @sqlite3_column_count(ptr noundef %56)
  %58 = sext i32 %57 to i64
  %59 = load ptr, ptr %8, align 8, !tbaa !9
  %60 = getelementptr inbounds nuw %struct._zval_struct, ptr %59, i32 0, i32 0
  store i64 %58, ptr %60, align 8, !tbaa !13
  %61 = load ptr, ptr %8, align 8, !tbaa !9
  %62 = getelementptr inbounds nuw %struct._zval_struct, ptr %61, i32 0, i32 1
  store i32 4, ptr %62, align 8, !tbaa !13
  call void @llvm.lifetime.end.p0(i64 8, ptr %8) #15
  br label %63

63:                                               ; preds = %50
  br label %64

64:                                               ; preds = %63
  store i32 1, ptr %7, align 4
  br label %67

65:                                               ; No predecessors!
  br label %66

66:                                               ; preds = %65
  store i32 0, ptr %7, align 4
  br label %67

67:                                               ; preds = %66, %64, %43, %27
  call void @llvm.lifetime.end.p0(i64 8, ptr %6) #15
  call void @llvm.lifetime.end.p0(i64 8, ptr %5) #15
  %68 = load i32, ptr %7, align 4
  switch i32 %68, label %70 [
    i32 0, label %69
    i32 1, label %69
  ]

69:                                               ; preds = %67, %67
  ret void

70:                                               ; preds = %67
  unreachable
}