; Function Attrs: nounwind uwtable
define hidden void @zim_SQLite3Result_numColumns(ptr noundef readonly captures(none) %0, ptr noundef writeonly captures(none) %1) #0 {
  %3 = getelementptr inbounds nuw i8, ptr %0, i64 32
  %4 = load ptr, ptr %3, align 8, !tbaa !8
  %5 = getelementptr inbounds nuw i8, ptr %0, i64 44
  %6 = load i32, ptr %5, align 4, !tbaa !8
  %.not = icmp eq i32 %6, 0
  br i1 %.not, label %8, label %7, !prof !75

7:                                                ; preds = %2
  tail call void @zend_wrong_parameters_none_error() #17
  br label %25

8:                                                ; preds = %2
  %9 = getelementptr inbounds i8, ptr %4, i64 -32
  %10 = load ptr, ptr %9, align 8, !tbaa !94
  %.not9 = icmp eq ptr %10, null
  br i1 %.not9, label %17, label %11

11:                                               ; preds = %8
  %12 = getelementptr inbounds i8, ptr %4, i64 -24
  %13 = load ptr, ptr %12, align 8, !tbaa !97
  %14 = getelementptr inbounds nuw i8, ptr %13, i64 16
  %15 = load i8, ptr %14, align 8, !tbaa !88, !range !55, !noundef !56
  %16 = trunc nuw i8 %15 to i1
  br i1 %16, label %20, label %17

17:                                               ; preds = %11, %8
  tail call void (ptr, ptr, ...) @zend_throw_error(ptr noundef null, ptr noundef nonnull @.str.42) #17
  %18 = load ptr, ptr getelementptr inbounds nuw (i8, ptr @executor_globals, i64 960), align 8, !tbaa !9
  %19 = icmp ne ptr %18, null
  tail call void @llvm.assume(i1 %19)
  br label %25

20:                                               ; preds = %11
  %21 = load ptr, ptr %13, align 8, !tbaa !100
  %22 = tail call i32 @sqlite3_column_count(ptr noundef %21) #17
  %23 = sext i32 %22 to i64
  store i64 %23, ptr %1, align 8, !tbaa !8
  %24 = getelementptr inbounds nuw i8, ptr %1, i64 8
  store i32 4, ptr %24, align 8, !tbaa !8
  br label %25

25:                                               ; preds = %20, %17, %7
  ret void
}